; Function Attrs: mustprogress nounwind uwtable
define dso_local noundef zeroext i1 @_ZN4node20SigintWatchdogHelper16HasPendingSignalEv(ptr noundef nonnull align 8 dereferenceable(162) %this) local_unnamed_addr #3 align 2 {
entry:
  %list_mutex_ = getelementptr inbounds i8, ptr %this, i64 48
  tail call void @uv_mutex_lock(ptr noundef nonnull %list_mutex_) #15
  %has_pending_signal_ = getelementptr inbounds i8, ptr %this, i64 112
  %0 = load i8, ptr %has_pending_signal_, align 8
  %1 = and i8 %0, 1
  %tobool = icmp ne i8 %1, 0
  tail call void @uv_mutex_unlock(ptr noundef nonnull %list_mutex_) #15
  ret i1 %tobool
}